target datalayout = "e-m:e-p270:32:32-p271:32:32-p272:64:64-i64:64-i128:128-f80:128-n8:16:32:64-S128"
target triple = "x86_64-pc-linux-gnu"

%struct._zval_struct = type { %union._zend_value, %union.anon, %union.anon.2 }
%union._zend_value = type { i64 }
%union.anon = type { i32 }
%union.anon.2 = type { i32 }
%struct._zend_fcall_info = type { i64, %struct._zval_struct, ptr, ptr, ptr, i32, ptr }

; Function Attrs: nounwind uwtable
define dso_local void @zend_fcall_info_args_save(ptr noundef %0, ptr noundef %1, ptr noundef %2) #0 {
  %4 = alloca ptr, align 8
  %5 = alloca ptr, align 8
  %6 = alloca ptr, align 8
  store ptr %0, ptr %4, align 8, !tbaa !307
  store ptr %1, ptr %5, align 8, !tbaa !98
  store ptr %2, ptr %6, align 8, !tbaa !90
  %7 = load ptr, ptr %4, align 8, !tbaa !307
  %8 = getelementptr inbounds nuw %struct._zend_fcall_info, ptr %7, i32 0, i32 5
  %9 = load i32, ptr %8, align 8, !tbaa !313
  %10 = load ptr, ptr %5, align 8, !tbaa !98
  store i32 %9, ptr %10, align 4, !tbaa !4
  %11 = load ptr, ptr %4, align 8, !tbaa !307
  %12 = getelementptr inbounds nuw %struct._zend_fcall_info, ptr %11, i32 0, i32 3
  %13 = load ptr, ptr %12, align 8, !tbaa !314
  %14 = load ptr, ptr %6, align 8, !tbaa !90
  store ptr %13, ptr %14, align 8, !tbaa !8
  %15 = load ptr, ptr %4, align 8, !tbaa !307
  %16 = getelementptr inbounds nuw %struct._zend_fcall_info, ptr %15, i32 0, i32 5
  store i32 0, ptr %16, align 8, !tbaa !313
  %17 = load ptr, ptr %4, align 8, !tbaa !307
  %18 = getelementptr inbounds nuw %struct._zend_fcall_info, ptr %17, i32 0, i32 3
  store ptr null, ptr %18, align 8, !tbaa !314
  ret void
}