; Function Attrs: mustprogress nofree norecurse nosync nounwind willreturn memory(argmem: readwrite) uwtable
define dso_local void @zend_fcall_info_args_save(ptr noundef captures(none) %0, ptr noundef writeonly captures(none) initializes((0, 4)) %1, ptr noundef writeonly captures(none) initializes((0, 8)) %2) local_unnamed_addr #24 {
  %4 = getelementptr inbounds nuw i8, ptr %0, i64 48
  %5 = load i32, ptr %4, align 8, !tbaa !117
  store i32 %5, ptr %1, align 4, !tbaa !121
  %6 = getelementptr inbounds nuw i8, ptr %0, i64 32
  %7 = load ptr, ptr %6, align 8, !tbaa !292
  store ptr %7, ptr %2, align 8, !tbaa !77
  store i32 0, ptr %4, align 8, !tbaa !117
  store ptr null, ptr %6, align 8, !tbaa !292
  ret void
}